target datalayout = "e-m:e-p270:32:32-p271:32:32-p272:64:64-i64:64-i128:128-f80:128-n8:16:32:64-S128"
target triple = "x86_64-pc-linux-gnu"

%"class.cv::UMat" = type { i32, i32, i32, i32, ptr, i32, ptr, i64, %"struct.cv::MatSize", %"struct.cv::MatStep" }
%"struct.cv::MatSize" = type { ptr }
%"struct.cv::MatStep" = type { ptr, [2 x i64] }

; Function Attrs: inlinehint mustprogress nounwind uwtable
define linkonce_odr hidden noundef nonnull align 8 dereferenceable(8) ptr @_ZN2cv7MatStepixEi(ptr noundef nonnull align 8 dereferenceable(24) %0, i32 noundef %1) #5 comdat align 2 {
  %3 = alloca ptr, align 8
  %4 = alloca i32, align 4
  store ptr %0, ptr %3, align 8, !tbaa !86
  store i32 %1, ptr %4, align 4, !tbaa !37
  %5 = load ptr, ptr %3, align 8
  %6 = getelementptr inbounds nuw %"struct.cv::MatStep", ptr %5, i32 0, i32 0
  %7 = load ptr, ptr %6, align 8, !tbaa !88
  %8 = load i32, ptr %4, align 4, !tbaa !37
  %9 = sext i32 %8 to i64
  %10 = getelementptr inbounds i64, ptr %7, i64 %9
  ret ptr %10
}

; Function Attrs: inlinehint mustprogress nounwind uwtable
define linkonce_odr hidden void @_ZN2cv7MatStepC2Ev(ptr noundef nonnull align 8 dereferenceable(24) %0) unnamed_addr #5 comdat align 2 {
  %2 = alloca ptr, align 8
  store ptr %0, ptr %2, align 8, !tbaa !86
  %3 = load ptr, ptr %2, align 8
  %4 = getelementptr inbounds nuw %"struct.cv::MatStep", ptr %3, i32 0, i32 1
  %5 = getelementptr inbounds [2 x i64], ptr %4, i64 0, i64 0
  %6 = getelementptr inbounds nuw %"struct.cv::MatStep", ptr %3, i32 0, i32 0
  store ptr %5, ptr %6, align 8, !tbaa !88
  %7 = getelementptr inbounds nuw %"struct.cv::MatStep", ptr %3, i32 0, i32 0
  %8 = load ptr, ptr %7, align 8, !tbaa !88
  %9 = getelementptr inbounds i64, ptr %8, i64 1
  store i64 0, ptr %9, align 8, !tbaa !50
  %10 = getelementptr inbounds nuw %"struct.cv::MatStep", ptr %3, i32 0, i32 0
  %11 = load ptr, ptr %10, align 8, !tbaa !88
  %12 = getelementptr inbounds i64, ptr %11, i64 0
  store i64 0, ptr %12, align 8, !tbaa !50
  ret void
}

; Function Attrs: inlinehint mustprogress nounwind uwtable
define linkonce_odr hidden void @_ZN2cv7MatSizeC2EPi(ptr noundef nonnull align 8 dereferenceable(8) %0, ptr noundef %1) unnamed_addr #5 comdat align 2 {
  %3 = alloca ptr, align 8
  %4 = alloca ptr, align 8
  store ptr %0, ptr %3, align 8, !tbaa !82
  store ptr %1, ptr %4, align 8, !tbaa !84
  %5 = load ptr, ptr %3, align 8
  %6 = getelementptr inbounds nuw %"struct.cv::MatSize", ptr %5, i32 0, i32 0
  %7 = load ptr, ptr %4, align 8, !tbaa !84
  store ptr %7, ptr %6, align 8, !tbaa !85
  ret void
}

; Function Attrs: mustprogress nounwind uwtable
define void @_ZN2cv4UMatC2EOS0_(ptr noundef nonnull align 8 dereferenceable(80) %0, ptr noundef nonnull align 8 dereferenceable(80) %1) unnamed_addr #0 align 2 {
  %3 = alloca ptr, align 8
  %4 = alloca ptr, align 8
  store ptr %0, ptr %3, align 8, !tbaa !65
  store ptr %1, ptr %4, align 8, !tbaa !65
  %5 = load ptr, ptr %3, align 8
  %6 = getelementptr inbounds nuw %"class.cv::UMat", ptr %5, i32 0, i32 0
  %7 = load ptr, ptr %4, align 8, !tbaa !65
  %8 = getelementptr inbounds nuw %"class.cv::UMat", ptr %7, i32 0, i32 0
  %9 = load i32, ptr %8, align 8, !tbaa !69
  store i32 %9, ptr %6, align 8, !tbaa !69
  %10 = getelementptr inbounds nuw %"class.cv::UMat", ptr %5, i32 0, i32 1
  %11 = load ptr, ptr %4, align 8, !tbaa !65
  %12 = getelementptr inbounds nuw %"class.cv::UMat", ptr %11, i32 0, i32 1
  %13 = load i32, ptr %12, align 4, !tbaa !75
  store i32 %13, ptr %10, align 4, !tbaa !75
  %14 = getelementptr inbounds nuw %"class.cv::UMat", ptr %5, i32 0, i32 2
  %15 = load ptr, ptr %4, align 8, !tbaa !65
  %16 = getelementptr inbounds nuw %"class.cv::UMat", ptr %15, i32 0, i32 2
  %17 = load i32, ptr %16, align 8, !tbaa !76
  store i32 %17, ptr %14, align 8, !tbaa !76
  %18 = getelementptr inbounds nuw %"class.cv::UMat", ptr %5, i32 0, i32 3
  %19 = load ptr, ptr %4, align 8, !tbaa !65
  %20 = getelementptr inbounds nuw %"class.cv::UMat", ptr %19, i32 0, i32 3
  %21 = load i32, ptr %20, align 4, !tbaa !77
  store i32 %21, ptr %18, align 4, !tbaa !77
  %22 = getelementptr inbounds nuw %"class.cv::UMat", ptr %5, i32 0, i32 4
  %23 = load ptr, ptr %4, align 8, !tbaa !65
  %24 = getelementptr inbounds nuw %"class.cv::UMat", ptr %23, i32 0, i32 4
  %25 = load ptr, ptr %24, align 8, !tbaa !78
  store ptr %25, ptr %22, align 8, !tbaa !78
  %26 = getelementptr inbounds nuw %"class.cv::UMat", ptr %5, i32 0, i32 5
  %27 = load ptr, ptr %4, align 8, !tbaa !65
  %28 = getelementptr inbounds nuw %"class.cv::UMat", ptr %27, i32 0, i32 5
  %29 = load i32, ptr %28, align 8, !tbaa !79
  store i32 %29, ptr %26, align 8, !tbaa !79
  %30 = getelementptr inbounds nuw %"class.cv::UMat", ptr %5, i32 0, i32 6
  %31 = load ptr, ptr %4, align 8, !tbaa !65
  %32 = getelementptr inbounds nuw %"class.cv::UMat", ptr %31, i32 0, i32 6
  %33 = load ptr, ptr %32, align 8, !tbaa !80
  store ptr %33, ptr %30, align 8, !tbaa !80
  %34 = getelementptr inbounds nuw %"class.cv::UMat", ptr %5, i32 0, i32 7
  %35 = load ptr, ptr %4, align 8, !tbaa !65
  %36 = getelementptr inbounds nuw %"class.cv::UMat", ptr %35, i32 0, i32 7
  %37 = load i64, ptr %36, align 8, !tbaa !81
  store i64 %37, ptr %34, align 8, !tbaa !81
  %38 = getelementptr inbounds nuw %"class.cv::UMat", ptr %5, i32 0, i32 8
  %39 = getelementptr inbounds nuw %"class.cv::UMat", ptr %5, i32 0, i32 2
  call void @_ZN2cv7MatSizeC2EPi(ptr noundef nonnull align 8 dereferenceable(8) %38, ptr noundef %39) #16
  %40 = getelementptr inbounds nuw %"class.cv::UMat", ptr %5, i32 0, i32 9
  call void @_ZN2cv7MatStepC2Ev(ptr noundef nonnull align 8 dereferenceable(24) %40) #16
  %41 = load ptr, ptr %4, align 8, !tbaa !65
  %42 = getelementptr inbounds nuw %"class.cv::UMat", ptr %41, i32 0, i32 1
  %43 = load i32, ptr %42, align 4, !tbaa !75
  %44 = icmp sle i32 %43, 2
  br i1 %44, label %45, label %58

45:                                               ; preds = %2
  %46 = load ptr, ptr %4, align 8, !tbaa !65
  %47 = getelementptr inbounds nuw %"class.cv::UMat", ptr %46, i32 0, i32 9
  %48 = call noundef nonnull align 8 dereferenceable(8) ptr @_ZN2cv7MatStepixEi(ptr noundef nonnull align 8 dereferenceable(24) %47, i32 noundef 0) #16
  %49 = load i64, ptr %48, align 8, !tbaa !50
  %50 = getelementptr inbounds nuw %"class.cv::UMat", ptr %5, i32 0, i32 9
  %51 = call noundef nonnull align 8 dereferenceable(8) ptr @_ZN2cv7MatStepixEi(ptr noundef nonnull align 8 dereferenceable(24) %50, i32 noundef 0) #16
  store i64 %49, ptr %51, align 8, !tbaa !50
  %52 = load ptr, ptr %4, align 8, !tbaa !65
  %53 = getelementptr inbounds nuw %"class.cv::UMat", ptr %52, i32 0, i32 9
  %54 = call noundef nonnull align 8 dereferenceable(8) ptr @_ZN2cv7MatStepixEi(ptr noundef nonnull align 8 dereferenceable(24) %53, i32 noundef 1) #16
  %55 = load i64, ptr %54, align 8, !tbaa !50
  %56 = getelementptr inbounds nuw %"class.cv::UMat", ptr %5, i32 0, i32 9
  %57 = call noundef nonnull align 8 dereferenceable(8) ptr @_ZN2cv7MatStepixEi(ptr noundef nonnull align 8 dereferenceable(24) %56, i32 noundef 1) #16
  store i64 %55, ptr %57, align 8, !tbaa !50
  br label %83

58:                                               ; preds = %2
  %59 = load ptr, ptr %4, align 8, !tbaa !65
  %60 = getelementptr inbounds nuw %"class.cv::UMat", ptr %59, i32 0, i32 9
  %61 = getelementptr inbounds nuw %"struct.cv::MatStep", ptr %60, i32 0, i32 0
  %62 = load ptr, ptr %61, align 8, !tbaa !98
  %63 = getelementptr inbounds nuw %"class.cv::UMat", ptr %5, i32 0, i32 9
  %64 = getelementptr inbounds nuw %"struct.cv::MatStep", ptr %63, i32 0, i32 0
  store ptr %62, ptr %64, align 8, !tbaa !98
  %65 = load ptr, ptr %4, align 8, !tbaa !65
  %66 = getelementptr inbounds nuw %"class.cv::UMat", ptr %65, i32 0, i32 8
  %67 = getelementptr inbounds nuw %"struct.cv::MatSize", ptr %66, i32 0, i32 0
  %68 = load ptr, ptr %67, align 8, !tbaa !96
  %69 = getelementptr inbounds nuw %"class.cv::UMat", ptr %5, i32 0, i32 8
  %70 = getelementptr inbounds nuw %"struct.cv::MatSize", ptr %69, i32 0, i32 0
  store ptr %68, ptr %70, align 8, !tbaa !96
  %71 = load ptr, ptr %4, align 8, !tbaa !65
  %72 = getelementptr inbounds nuw %"class.cv::UMat", ptr %71, i32 0, i32 9
  %73 = getelementptr inbounds nuw %"struct.cv::MatStep", ptr %72, i32 0, i32 1
  %74 = getelementptr inbounds [2 x i64], ptr %73, i64 0, i64 0
  %75 = load ptr, ptr %4, align 8, !tbaa !65
  %76 = getelementptr inbounds nuw %"class.cv::UMat", ptr %75, i32 0, i32 9
  %77 = getelementptr inbounds nuw %"struct.cv::MatStep", ptr %76, i32 0, i32 0
  store ptr %74, ptr %77, align 8, !tbaa !98
  %78 = load ptr, ptr %4, align 8, !tbaa !65
  %79 = getelementptr inbounds nuw %"class.cv::UMat", ptr %78, i32 0, i32 2
  %80 = load ptr, ptr %4, align 8, !tbaa !65
  %81 = getelementptr inbounds nuw %"class.cv::UMat", ptr %80, i32 0, i32 8
  %82 = getelementptr inbounds nuw %"struct.cv::MatSize", ptr %81, i32 0, i32 0
  store ptr %79, ptr %82, align 8, !tbaa !96
  br label %83

83:                                               ; preds = %58, %45
  %84 = load ptr, ptr %4, align 8, !tbaa !65
  %85 = getelementptr inbounds nuw %"class.cv::UMat", ptr %84, i32 0, i32 0
  store i32 1124007936, ptr %85, align 8, !tbaa !69
  %86 = load ptr, ptr %4, align 8, !tbaa !65
  %87 = getelementptr inbounds nuw %"class.cv::UMat", ptr %86, i32 0, i32 3
  store i32 0, ptr %87, align 4, !tbaa !77
  %88 = load ptr, ptr %4, align 8, !tbaa !65
  %89 = getelementptr inbounds nuw %"class.cv::UMat", ptr %88, i32 0, i32 2
  store i32 0, ptr %89, align 8, !tbaa !76
  %90 = load ptr, ptr %4, align 8, !tbaa !65
  %91 = getelementptr inbounds nuw %"class.cv::UMat", ptr %90, i32 0, i32 1
  store i32 0, ptr %91, align 4, !tbaa !75
  %92 = load ptr, ptr %4, align 8, !tbaa !65
  %93 = getelementptr inbounds nuw %"class.cv::UMat", ptr %92, i32 0, i32 4
  store ptr null, ptr %93, align 8, !tbaa !78
  %94 = load ptr, ptr %4, align 8, !tbaa !65
  %95 = getelementptr inbounds nuw %"class.cv::UMat", ptr %94, i32 0, i32 6
  store ptr null, ptr %95, align 8, !tbaa !80
  %96 = load ptr, ptr %4, align 8, !tbaa !65
  %97 = getelementptr inbounds nuw %"class.cv::UMat", ptr %96, i32 0, i32 7
  store i64 0, ptr %97, align 8, !tbaa !81
  ret void
}