; Function Attrs: mustprogress nofree norecurse nosync nounwind willreturn memory(read, argmem: readwrite, inaccessiblemem: none) uwtable
define void @_ZN2cv4UMatC2EOS0_(ptr noundef nonnull align 8 dereferenceable(80) initializes((0, 28), (32, 48)) %0, ptr noundef nonnull align 8 dereferenceable(80) %1) unnamed_addr #10 align 2 {
  %3 = load i32, ptr %1, align 8, !tbaa !43
  store i32 %3, ptr %0, align 8, !tbaa !43
  %4 = getelementptr inbounds nuw i8, ptr %0, i64 4
  %5 = getelementptr inbounds nuw i8, ptr %1, i64 4
  %6 = load i32, ptr %5, align 4, !tbaa !58
  store i32 %6, ptr %4, align 4, !tbaa !58
  %7 = getelementptr inbounds nuw i8, ptr %0, i64 8
  %8 = getelementptr inbounds nuw i8, ptr %1, i64 8
  %9 = load i32, ptr %8, align 8, !tbaa !64
  store i32 %9, ptr %7, align 8, !tbaa !64
  %10 = getelementptr inbounds nuw i8, ptr %0, i64 12
  %11 = getelementptr inbounds nuw i8, ptr %1, i64 12
  %12 = load i32, ptr %11, align 4, !tbaa !65
  store i32 %12, ptr %10, align 4, !tbaa !65
  %13 = getelementptr inbounds nuw i8, ptr %0, i64 16
  %14 = getelementptr inbounds nuw i8, ptr %1, i64 16
  %15 = load ptr, ptr %14, align 8, !tbaa !68
  store ptr %15, ptr %13, align 8, !tbaa !68
  %16 = getelementptr inbounds nuw i8, ptr %0, i64 24
  %17 = getelementptr inbounds nuw i8, ptr %1, i64 24
  %18 = load i32, ptr %17, align 8, !tbaa !50
  store i32 %18, ptr %16, align 8, !tbaa !50
  %19 = getelementptr inbounds nuw i8, ptr %0, i64 32
  %20 = getelementptr inbounds nuw i8, ptr %1, i64 32
  %21 = load ptr, ptr %20, align 8, !tbaa !57
  store ptr %21, ptr %19, align 8, !tbaa !57
  %22 = getelementptr inbounds nuw i8, ptr %0, i64 40
  %23 = getelementptr inbounds nuw i8, ptr %1, i64 40
  %24 = load i64, ptr %23, align 8, !tbaa !63
  store i64 %24, ptr %22, align 8, !tbaa !63
  %25 = getelementptr inbounds nuw i8, ptr %0, i64 48
  store ptr %7, ptr %25, align 8, !tbaa !51
  %26 = getelementptr inbounds nuw i8, ptr %0, i64 56
  %27 = getelementptr inbounds nuw i8, ptr %0, i64 64
  store ptr %27, ptr %26, align 8, !tbaa !52
  tail call void @llvm.memset.p0.i64(ptr noundef nonnull align 8 dereferenceable(16) %27, i8 0, i64 16, i1 false)
  %28 = load i32, ptr %5, align 4, !tbaa !58
  %29 = icmp slt i32 %28, 3
  %30 = getelementptr inbounds nuw i8, ptr %1, i64 56
  %31 = load ptr, ptr %30, align 8, !tbaa !52
  br i1 %29, label %32, label %37

32:                                               ; preds = %2
  %33 = load i64, ptr %31, align 8, !tbaa !69
  store i64 %33, ptr %27, align 8, !tbaa !69
  %34 = getelementptr inbounds nuw i8, ptr %31, i64 8
  %35 = load i64, ptr %34, align 8, !tbaa !69
  %36 = getelementptr inbounds nuw i8, ptr %0, i64 72
  store i64 %35, ptr %36, align 8, !tbaa !69
  br label %41

37:                                               ; preds = %2
  store ptr %31, ptr %26, align 8, !tbaa !67
  %38 = getelementptr inbounds nuw i8, ptr %1, i64 48
  %39 = load ptr, ptr %38, align 8, !tbaa !61
  store ptr %39, ptr %25, align 8, !tbaa !61
  %40 = getelementptr inbounds nuw i8, ptr %1, i64 64
  store ptr %40, ptr %30, align 8, !tbaa !67
  store ptr %8, ptr %38, align 8, !tbaa !61
  br label %41

41:                                               ; preds = %37, %32
  store i32 1124007936, ptr %1, align 8, !tbaa !43
  tail call void @llvm.memset.p0.i64(ptr noundef nonnull align 4 dereferenceable(20) %5, i8 0, i64 20, i1 false)
  tail call void @llvm.memset.p0.i64(ptr noundef nonnull align 8 dereferenceable(16) %20, i8 0, i64 16, i1 false)
  ret void
}